target datalayout = "e-m:e-p270:32:32-p271:32:32-p272:64:64-i64:64-i128:128-f80:128-n8:16:32:64-S128"
target triple = "x86_64-pc-linux-gnu"

%struct.stat = type { i64, i64, i64, i32, i32, i32, i32, i64, i64, i64, i64, %struct.timespec, %struct.timespec, %struct.timespec, [3 x i64] }
%struct.timespec = type { i64, i64 }
%struct.cl_fmap = type { ptr, ptr, ptr, i64, i64, i64, i64, i8, i8, i8, i64, i64, i64, i64, ptr, ptr, ptr, ptr, ptr, ptr, ptr, i8, [16 x i8], i8, [20 x i8], i8, [32 x i8], ptr, ptr }

@.str = private unnamed_addr constant [20 x i8] c"fmap: fstat failed\0A\00", align 1
@.str.1 = private unnamed_addr constant [30 x i8] c"fmap: attempted void mapping\0A\00", align 1
@.str.2 = private unnamed_addr constant [29 x i8] c"fmap: attempted oof mapping\0A\00", align 1

; Function Attrs: nounwind uwtable
define internal void @funmap(ptr noundef %0) #0 {
  %2 = alloca ptr, align 8
  store ptr %0, ptr %2, align 8
  %3 = load ptr, ptr %2, align 8
  %4 = getelementptr inbounds %struct.cl_fmap, ptr %3, i32 0, i32 14
  %5 = load ptr, ptr %4, align 8
  %6 = load ptr, ptr %2, align 8
  call void %5(ptr noundef %6)
  ret void
}

; Function Attrs: nounwind uwtable
define ptr @fmap_check_empty(i32 noundef %0, i64 noundef %1, i64 noundef %2, ptr noundef %3, ptr noundef %4) #0 {
  %6 = alloca ptr, align 8
  %7 = alloca i32, align 4
  %8 = alloca i64, align 8
  %9 = alloca i64, align 8
  %10 = alloca ptr, align 8
  %11 = alloca ptr, align 8
  %12 = alloca %struct.stat, align 8
  %13 = alloca ptr, align 8
  store i32 %0, ptr %7, align 4
  store i64 %1, ptr %8, align 8
  store i64 %2, ptr %9, align 8
  store ptr %3, ptr %10, align 8
  store ptr %4, ptr %11, align 8
  store ptr null, ptr %13, align 8
  %14 = load ptr, ptr %10, align 8
  store i32 0, ptr %14, align 4
  %15 = load i32, ptr %7, align 4
  %16 = call i32 @fstat(i32 noundef %15, ptr noundef %12) #8
  %17 = icmp ne i32 %16, 0
  br i1 %17, label %18, label %19

18:                                               ; preds = %5
  call void (ptr, ...) @cli_warnmsg(ptr noundef @.str)
  store ptr null, ptr %6, align 8
  br label %89

19:                                               ; preds = %5
  %20 = load i64, ptr %9, align 8
  %21 = icmp ne i64 %20, 0
  br i1 %21, label %27, label %22

22:                                               ; preds = %19
  %23 = getelementptr inbounds %struct.stat, ptr %12, i32 0, i32 8
  %24 = load i64, ptr %23, align 8
  %25 = load i64, ptr %8, align 8
  %26 = sub nsw i64 %24, %25
  store i64 %26, ptr %9, align 8
  br label %27

27:                                               ; preds = %22, %19
  %28 = load i64, ptr %9, align 8
  %29 = icmp ne i64 %28, 0
  br i1 %29, label %32, label %30

30:                                               ; preds = %27
  call void (ptr, ...) @cli_dbgmsg(ptr noundef @.str.1)
  %31 = load ptr, ptr %10, align 8
  store i32 1, ptr %31, align 4
  store ptr null, ptr %6, align 8
  br label %89

32:                                               ; preds = %27
  %33 = getelementptr inbounds %struct.stat, ptr %12, i32 0, i32 8
  %34 = load i64, ptr %33, align 8
  %35 = icmp ugt i64 %34, 0
  br i1 %35, label %36, label %56

36:                                               ; preds = %32
  %37 = load i64, ptr %9, align 8
  %38 = icmp ugt i64 %37, 0
  br i1 %38, label %39, label %56

39:                                               ; preds = %36
  %40 = load i64, ptr %9, align 8
  %41 = getelementptr inbounds %struct.stat, ptr %12, i32 0, i32 8
  %42 = load i64, ptr %41, align 8
  %43 = icmp ule i64 %40, %42
  br i1 %43, label %44, label %56

44:                                               ; preds = %39
  %45 = load i64, ptr %8, align 8
  %46 = load i64, ptr %9, align 8
  %47 = add i64 %45, %46
  %48 = getelementptr inbounds %struct.stat, ptr %12, i32 0, i32 8
  %49 = load i64, ptr %48, align 8
  %50 = icmp ule i64 %47, %49
  br i1 %50, label %51, label %56

51:                                               ; preds = %44
  %52 = load i64, ptr %8, align 8
  %53 = getelementptr inbounds %struct.stat, ptr %12, i32 0, i32 8
  %54 = load i64, ptr %53, align 8
  %55 = icmp ult i64 %52, %54
  br i1 %55, label %57, label %56

56:                                               ; preds = %51, %44, %39, %36, %32
  call void (ptr, ...) @cli_warnmsg(ptr noundef @.str.2)
  store ptr null, ptr %6, align 8
  br label %89

57:                                               ; preds = %51
  %58 = load i32, ptr %7, align 4
  %59 = sext i32 %58 to i64
  %60 = inttoptr i64 %59 to ptr
  %61 = load i64, ptr %8, align 8
  %62 = load i64, ptr %9, align 8
  %63 = call ptr @cl_fmap_open_handle(ptr noundef %60, i64 noundef %61, i64 noundef %62, ptr noundef @pread_cb, i32 noundef 1)
  store ptr %63, ptr %13, align 8
  %64 = load ptr, ptr %13, align 8
  %65 = icmp ne ptr %64, null
  br i1 %65, label %67, label %66

66:                                               ; preds = %57
  store ptr null, ptr %6, align 8
  br label %89

67:                                               ; preds = %57
  %68 = getelementptr inbounds %struct.stat, ptr %12, i32 0, i32 12
  %69 = getelementptr inbounds %struct.timespec, ptr %68, i32 0, i32 0
  %70 = load i64, ptr %69, align 8
  %71 = load ptr, ptr %13, align 8
  %72 = getelementptr inbounds %struct.cl_fmap, ptr %71, i32 0, i32 3
  store i64 %70, ptr %72, align 8
  %73 = load ptr, ptr %11, align 8
  %74 = icmp ne ptr null, %73
  br i1 %74, label %75, label %87

75:                                               ; preds = %67
  %76 = load ptr, ptr %11, align 8
  %77 = call ptr @cli_safer_strdup(ptr noundef %76)
  %78 = load ptr, ptr %13, align 8
  %79 = getelementptr inbounds %struct.cl_fmap, ptr %78, i32 0, i32 28
  store ptr %77, ptr %79, align 8
  %80 = load ptr, ptr %13, align 8
  %81 = getelementptr inbounds %struct.cl_fmap, ptr %80, i32 0, i32 28
  %82 = load ptr, ptr %81, align 8
  %83 = icmp eq ptr null, %82
  br i1 %83, label %84, label %86

84:                                               ; preds = %75
  %85 = load ptr, ptr %13, align 8
  call void @funmap(ptr noundef %85)
  store ptr null, ptr %6, align 8
  br label %89

86:                                               ; preds = %75
  br label %87

87:                                               ; preds = %86, %67
  %88 = load ptr, ptr %13, align 8
  store ptr %88, ptr %6, align 8
  br label %89

89:                                               ; preds = %87, %84, %66, %56, %30, %18
  %90 = load ptr, ptr %6, align 8
  ret ptr %90
}