; Function Attrs: nounwind uwtable
define noundef ptr @fmap_check_empty(i32 noundef %0, i64 noundef %1, i64 noundef %2, ptr nocapture noundef writeonly %3, ptr noundef %4) local_unnamed_addr #0 {
  %6 = alloca %struct.stat, align 8
  store i32 0, ptr %3, align 4
  %7 = call i32 @fstat(i32 noundef %0, ptr noundef nonnull %6) #18
  %.not = icmp eq i32 %7, 0
  br i1 %.not, label %9, label %8

8:                                                ; preds = %5
  tail call void (ptr, ...) @cli_warnmsg(ptr noundef nonnull @.str) #18
  br label %33

9:                                                ; preds = %5
  %.not29 = icmp eq i64 %2, 0
  %10 = getelementptr inbounds i8, ptr %6, i64 48
  %11 = load i64, ptr %10, align 8
  %12 = sub nsw i64 %11, %1
  %.023 = select i1 %.not29, i64 %12, i64 %2
  %.not30 = icmp eq i64 %.023, 0
  br i1 %.not30, label %13, label %14

13:                                               ; preds = %9
  tail call void (ptr, ...) @cli_dbgmsg(ptr noundef nonnull @.str.1) #18
  store i32 1, ptr %3, align 4
  br label %33

14:                                               ; preds = %9
  %.not32 = icmp ule i64 %.023, %11
  %15 = add i64 %.023, %1
  %.not33 = icmp ule i64 %15, %11
  %or.cond36.not38 = and i1 %.not32, %.not33
  %16 = icmp ugt i64 %11, %1
  %or.cond37 = and i1 %16, %or.cond36.not38
  br i1 %or.cond37, label %18, label %17

17:                                               ; preds = %14
  tail call void (ptr, ...) @cli_warnmsg(ptr noundef nonnull @.str.2) #18
  br label %33

18:                                               ; preds = %14
  %19 = sext i32 %0 to i64
  %20 = inttoptr i64 %19 to ptr
  %21 = tail call ptr @cl_fmap_open_handle(ptr noundef %20, i64 noundef %1, i64 noundef %.023, ptr noundef nonnull @pread_cb, i32 noundef 1)
  %.not34 = icmp eq ptr %21, null
  br i1 %.not34, label %33, label %22

22:                                               ; preds = %18
  %23 = getelementptr inbounds i8, ptr %6, i64 88
  %24 = load i64, ptr %23, align 8
  %25 = getelementptr inbounds i8, ptr %21, i64 24
  store i64 %24, ptr %25, align 8
  %.not35 = icmp eq ptr %4, null
  br i1 %.not35, label %33, label %26

26:                                               ; preds = %22
  %27 = tail call ptr @cli_safer_strdup(ptr noundef nonnull %4) #18
  %28 = getelementptr inbounds i8, ptr %21, i64 232
  store ptr %27, ptr %28, align 8
  %29 = icmp eq ptr %27, null
  br i1 %29, label %30, label %33

30:                                               ; preds = %26
  %31 = getelementptr inbounds i8, ptr %21, i64 96
  %32 = load ptr, ptr %31, align 8
  tail call void %32(ptr noundef nonnull %21) #18
  br label %33

33:                                               ; preds = %22, %26, %18, %30, %17, %13, %8
  %.0 = phi ptr [ null, %8 ], [ null, %30 ], [ null, %17 ], [ null, %13 ], [ null, %18 ], [ %21, %26 ], [ %21, %22 ]
  ret ptr %.0
}